target datalayout = "e-m:e-p270:32:32-p271:32:32-p272:64:64-i64:64-i128:128-f80:128-n8:16:32:64-S128"
target triple = "x86_64-pc-linux-gnu"

%struct.fetch_negotiator = type { ptr, ptr, ptr, ptr, ptr, ptr }
%struct.data = type { %struct.prio_queue, i32 }
%struct.prio_queue = type { ptr, i64, ptr, i64, i64, ptr }
%struct.commit = type { %struct.object, i64, ptr, ptr, i32 }
%struct.object = type { i32, %struct.object_id }
%struct.object_id = type { [32 x i8], i32 }
%struct.entry = type { ptr, i16, i16 }

; Function Attrs: nounwind uwtable
define internal ptr @rev_list_push(ptr noundef %0, ptr noundef %1, i32 noundef %2) #0 {
  %4 = alloca ptr, align 8
  %5 = alloca ptr, align 8
  %6 = alloca i32, align 4
  %7 = alloca ptr, align 8
  store ptr %0, ptr %4, align 8, !tbaa !15
  store ptr %1, ptr %5, align 8, !tbaa !27
  store i32 %2, ptr %6, align 4, !tbaa !24
  call void @llvm.lifetime.start.p0(i64 8, ptr %7) #7
  %8 = load i32, ptr %6, align 4, !tbaa !24
  %9 = or i32 %8, 16
  %10 = load ptr, ptr %5, align 8, !tbaa !27
  %11 = getelementptr inbounds nuw %struct.commit, ptr %10, i32 0, i32 0
  %12 = load i32, ptr %11, align 8
  %13 = lshr i32 %12, 4
  %14 = or i32 %13, %9
  %15 = load i32, ptr %11, align 8
  %16 = and i32 %14, 268435455
  %17 = shl i32 %16, 4
  %18 = and i32 %15, 15
  %19 = or i32 %18, %17
  store i32 %19, ptr %11, align 8
  %20 = call ptr @xcalloc(i64 noundef 1, i64 noundef 16)
  store ptr %20, ptr %7, align 8, !tbaa !37
  %21 = load ptr, ptr %5, align 8, !tbaa !27
  %22 = load ptr, ptr %7, align 8, !tbaa !37
  %23 = getelementptr inbounds nuw %struct.entry, ptr %22, i32 0, i32 0
  store ptr %21, ptr %23, align 8, !tbaa !39
  %24 = load ptr, ptr %4, align 8, !tbaa !15
  %25 = getelementptr inbounds nuw %struct.data, ptr %24, i32 0, i32 0
  %26 = load ptr, ptr %7, align 8, !tbaa !37
  call void @prio_queue_put(ptr noundef %25, ptr noundef %26)
  %27 = load i32, ptr %6, align 4, !tbaa !24
  %28 = and i32 %27, 4
  %29 = icmp ne i32 %28, 0
  br i1 %29, label %35, label %30

30:                                               ; preds = %3
  %31 = load ptr, ptr %4, align 8, !tbaa !15
  %32 = getelementptr inbounds nuw %struct.data, ptr %31, i32 0, i32 1
  %33 = load i32, ptr %32, align 8, !tbaa !48
  %34 = add nsw i32 %33, 1
  store i32 %34, ptr %32, align 8, !tbaa !48
  br label %35

35:                                               ; preds = %30, %3
  %36 = load ptr, ptr %7, align 8, !tbaa !37
  call void @llvm.lifetime.end.p0(i64 8, ptr %7) #7
  ret ptr %36
}

; Function Attrs: nounwind uwtable
define internal void @add_tip(ptr noundef %0, ptr noundef %1) #0 {
  %3 = alloca ptr, align 8
  %4 = alloca ptr, align 8
  store ptr %0, ptr %3, align 8, !tbaa !4
  store ptr %1, ptr %4, align 8, !tbaa !27
  %5 = load ptr, ptr %3, align 8, !tbaa !4
  %6 = getelementptr inbounds nuw %struct.fetch_negotiator, ptr %5, i32 0, i32 0
  store ptr null, ptr %6, align 8, !tbaa !9
  %7 = load ptr, ptr %4, align 8, !tbaa !27
  %8 = getelementptr inbounds nuw %struct.commit, ptr %7, i32 0, i32 0
  %9 = load i32, ptr %8, align 8
  %10 = lshr i32 %9, 4
  %11 = and i32 %10, 16
  %12 = icmp ne i32 %11, 0
  br i1 %12, label %13, label %14

13:                                               ; preds = %2
  br label %20

14:                                               ; preds = %2
  %15 = load ptr, ptr %3, align 8, !tbaa !4
  %16 = getelementptr inbounds nuw %struct.fetch_negotiator, ptr %15, i32 0, i32 5
  %17 = load ptr, ptr %16, align 8, !tbaa !17
  %18 = load ptr, ptr %4, align 8, !tbaa !27
  %19 = call ptr @rev_list_push(ptr noundef %17, ptr noundef %18, i32 noundef 0)
  br label %20

20:                                               ; preds = %14, %13
  ret void
}