; Function Attrs: nounwind uwtable
define internal void @add_tip(ptr noundef captures(none) initializes((0, 8)) %0, ptr noundef %1) #0 {
  store ptr null, ptr %0, align 8, !tbaa !4
  %3 = load i32, ptr %1, align 8
  %4 = and i32 %3, 256
  %.not = icmp eq i32 %4, 0
  br i1 %.not, label %5, label %13

5:                                                ; preds = %2
  %6 = getelementptr inbounds nuw i8, ptr %0, i64 40
  %7 = load ptr, ptr %6, align 8, !tbaa !13
  %8 = or disjoint i32 %3, 256
  store i32 %8, ptr %1, align 8
  %9 = tail call ptr @xcalloc(i64 noundef 1, i64 noundef 16) #6
  store ptr %1, ptr %9, align 8, !tbaa !22
  tail call void @prio_queue_put(ptr noundef %7, ptr noundef nonnull %9) #6
  %10 = getelementptr inbounds nuw i8, ptr %7, i64 48
  %11 = load i32, ptr %10, align 8, !tbaa !26
  %12 = add nsw i32 %11, 1
  store i32 %12, ptr %10, align 8, !tbaa !26
  br label %13

13:                                               ; preds = %2, %5
  ret void
}